target datalayout = "e-m:e-p270:32:32-p271:32:32-p272:64:64-i64:64-i128:128-f80:128-n8:16:32:64-S128"
target triple = "x86_64-pc-linux-gnu"

%"struct.std::_Rb_tree_header" = type { %"struct.std::_Rb_tree_node_base", i64 }
%"struct.std::_Rb_tree_node_base" = type { i32, ptr, ptr, ptr }
%"class.gmx::AwhEnergyBlock" = type { i32, float, %"class.std::vector" }
%"class.std::vector" = type { %"struct.std::_Vector_base" }
%"struct.std::_Vector_base" = type { %"struct.std::_Vector_base<float, std::allocator<float>>::_Vector_impl" }
%"struct.std::_Vector_base<float, std::allocator<float>>::_Vector_impl" = type { %"struct.std::_Vector_base<float, std::allocator<float>>::_Vector_impl_data" }
%"struct.std::_Vector_base<float, std::allocator<float>>::_Vector_impl_data" = type { ptr, ptr, ptr }
%"class.std::map.13" = type { %"class.std::_Rb_tree.14" }
%"class.std::_Rb_tree.14" = type { %"struct.std::_Rb_tree<gmx::AwhOutputEntryType, std::pair<const gmx::AwhOutputEntryType, int>, std::_Select1st<std::pair<const gmx::AwhOutputEntryType, int>>, std::less<gmx::AwhOutputEntryType>>::_Rb_tree_impl" }
%"struct.std::_Rb_tree<gmx::AwhOutputEntryType, std::pair<const gmx::AwhOutputEntryType, int>, std::_Select1st<std::pair<const gmx::AwhOutputEntryType, int>>, std::less<gmx::AwhOutputEntryType>>::_Rb_tree_impl" = type { [8 x i8], %"struct.std::_Rb_tree_header" }
%"class.gmx::BiasWriter" = type { %"class.std::vector.8", %"class.std::map.13" }
%"class.std::vector.8" = type { %"struct.std::_Vector_base.9" }
%"struct.std::_Vector_base.9" = type { %"struct.std::_Vector_base<gmx::AwhEnergyBlock, std::allocator<gmx::AwhEnergyBlock>>::_Vector_impl" }
%"struct.std::_Vector_base<gmx::AwhEnergyBlock, std::allocator<gmx::AwhEnergyBlock>>::_Vector_impl" = type { %"struct.std::_Vector_base<gmx::AwhEnergyBlock, std::allocator<gmx::AwhEnergyBlock>>::_Vector_impl_data" }
%"struct.std::_Vector_base<gmx::AwhEnergyBlock, std::allocator<gmx::AwhEnergyBlock>>::_Vector_impl_data" = type { ptr, ptr, ptr }
%"class.gmx::ArrayRef.101" = type { %"struct.gmx::ArrayRefIter.102", %"struct.gmx::ArrayRefIter.102" }
%"struct.gmx::ArrayRefIter.102" = type { ptr }
%struct.t_enxsubblock = type { i32, i32, ptr, ptr, ptr, ptr, ptr, ptr, i32, i32, i32, i32, i32, i32 }

; Function Attrs: mustprogress nounwind uwtable
define linkonce_odr noundef ptr @_ZNKSt6vectorIfSaIfEE11_M_data_ptrIfEEPT_S4_(ptr noundef nonnull align 8 dereferenceable(24) %0, ptr noundef %1) #3 comdat align 2 {
  %3 = alloca ptr, align 8
  %4 = alloca ptr, align 8
  store ptr %0, ptr %3, align 8, !tbaa !108
  store ptr %1, ptr %4, align 8, !tbaa !123
  %5 = load ptr, ptr %4, align 8, !tbaa !123
  ret ptr %5
}

; Function Attrs: mustprogress nounwind uwtable
define linkonce_odr noundef i64 @_ZNKSt6vectorIfSaIfEE4sizeEv(ptr noundef nonnull align 8 dereferenceable(24) %0) #3 comdat align 2 {
  %2 = alloca ptr, align 8
  store ptr %0, ptr %2, align 8, !tbaa !108
  %3 = load ptr, ptr %2, align 8
  %4 = getelementptr inbounds nuw %"struct.std::_Vector_base", ptr %3, i32 0, i32 0
  %5 = getelementptr inbounds nuw %"struct.std::_Vector_base<float, std::allocator<float>>::_Vector_impl_data", ptr %4, i32 0, i32 1
  %6 = load ptr, ptr %5, align 8, !tbaa !115
  %7 = getelementptr inbounds nuw %"struct.std::_Vector_base", ptr %3, i32 0, i32 0
  %8 = getelementptr inbounds nuw %"struct.std::_Vector_base<float, std::allocator<float>>::_Vector_impl_data", ptr %7, i32 0, i32 0
  %9 = load ptr, ptr %8, align 8, !tbaa !114
  %10 = ptrtoint ptr %6 to i64
  %11 = ptrtoint ptr %9 to i64
  %12 = sub i64 %10, %11
  %13 = sdiv exact i64 %12, 4
  ret i64 %13
}

; Function Attrs: mustprogress nounwind uwtable
define linkonce_odr void @_ZN3gmx12ArrayRefIterIfEC2EPf(ptr noundef nonnull align 8 dereferenceable(8) %0, ptr noundef %1) unnamed_addr #3 comdat align 2 {
  %3 = alloca ptr, align 8
  %4 = alloca ptr, align 8
  store ptr %0, ptr %3, align 8, !tbaa !301
  store ptr %1, ptr %4, align 8, !tbaa !123
  %5 = load ptr, ptr %3, align 8
  %6 = getelementptr inbounds nuw %"struct.gmx::ArrayRefIter.102", ptr %5, i32 0, i32 0
  %7 = load ptr, ptr %4, align 8, !tbaa !123
  store ptr %7, ptr %6, align 8, !tbaa !303
  ret void
}

; Function Attrs: mustprogress nounwind uwtable
define linkonce_odr noundef ptr @_ZNSt6vectorIfSaIfEE4dataEv(ptr noundef nonnull align 8 dereferenceable(24) %0) #3 comdat align 2 {
  %2 = alloca ptr, align 8
  store ptr %0, ptr %2, align 8, !tbaa !108
  %3 = load ptr, ptr %2, align 8
  %4 = getelementptr inbounds nuw %"struct.std::_Vector_base", ptr %3, i32 0, i32 0
  %5 = getelementptr inbounds nuw %"struct.std::_Vector_base<float, std::allocator<float>>::_Vector_impl_data", ptr %4, i32 0, i32 0
  %6 = load ptr, ptr %5, align 8, !tbaa !114
  %7 = call noundef ptr @_ZNKSt6vectorIfSaIfEE11_M_data_ptrIfEEPT_S4_(ptr noundef nonnull align 8 dereferenceable(24) %3, ptr noundef %6) #5
  ret ptr %7
}

; Function Attrs: mustprogress nounwind uwtable
define linkonce_odr noundef ptr @_ZNK3gmx12ArrayRefIterIfE4dataEv(ptr noundef nonnull align 8 dereferenceable(8) %0) #3 comdat align 2 {
  %2 = alloca ptr, align 8
  store ptr %0, ptr %2, align 8, !tbaa !301
  %3 = load ptr, ptr %2, align 8
  %4 = getelementptr inbounds nuw %"struct.gmx::ArrayRefIter.102", ptr %3, i32 0, i32 0
  %5 = load ptr, ptr %4, align 8, !tbaa !303
  ret ptr %5
}

; Function Attrs: mustprogress nounwind uwtable
define linkonce_odr noundef i64 @_ZNK3gmx12ArrayRefIterIfEmiES1_(ptr noundef nonnull align 8 dereferenceable(8) %0, ptr %1) #3 comdat align 2 {
  %3 = alloca %"struct.gmx::ArrayRefIter.102", align 8
  %4 = alloca ptr, align 8
  %5 = getelementptr inbounds nuw %"struct.gmx::ArrayRefIter.102", ptr %3, i32 0, i32 0
  store ptr %1, ptr %5, align 8
  store ptr %0, ptr %4, align 8, !tbaa !301
  %6 = load ptr, ptr %4, align 8
  %7 = getelementptr inbounds nuw %"struct.gmx::ArrayRefIter.102", ptr %6, i32 0, i32 0
  %8 = load ptr, ptr %7, align 8, !tbaa !303
  %9 = getelementptr inbounds nuw %"struct.gmx::ArrayRefIter.102", ptr %3, i32 0, i32 0
  %10 = load ptr, ptr %9, align 8, !tbaa !303
  %11 = ptrtoint ptr %8 to i64
  %12 = ptrtoint ptr %10 to i64
  %13 = sub i64 %11, %12
  %14 = sdiv exact i64 %13, 4
  ret i64 %14
}

; Function Attrs: mustprogress nounwind uwtable
define linkonce_odr void @_ZN3gmx8ArrayRefIfEC2IRSt6vectorIfSaIfEEvEEOT_(ptr noundef nonnull align 8 dereferenceable(16) %0, ptr noundef nonnull align 8 dereferenceable(24) %1) unnamed_addr #3 comdat align 2 {
  %3 = alloca ptr, align 8
  %4 = alloca ptr, align 8
  store ptr %0, ptr %3, align 8, !tbaa !292
  store ptr %1, ptr %4, align 8, !tbaa !108
  %5 = load ptr, ptr %3, align 8
  %6 = getelementptr inbounds nuw %"class.gmx::ArrayRef.101", ptr %5, i32 0, i32 0
  %7 = load ptr, ptr %4, align 8, !tbaa !108
  %8 = call noundef ptr @_ZNSt6vectorIfSaIfEE4dataEv(ptr noundef nonnull align 8 dereferenceable(24) %7) #5
  call void @_ZN3gmx12ArrayRefIterIfEC2EPf(ptr noundef nonnull align 8 dereferenceable(8) %6, ptr noundef %8) #5
  %9 = getelementptr inbounds nuw %"class.gmx::ArrayRef.101", ptr %5, i32 0, i32 1
  %10 = load ptr, ptr %4, align 8, !tbaa !108
  %11 = call noundef ptr @_ZNSt6vectorIfSaIfEE4dataEv(ptr noundef nonnull align 8 dereferenceable(24) %10) #5
  %12 = load ptr, ptr %4, align 8, !tbaa !108
  %13 = call noundef i64 @_ZNKSt6vectorIfSaIfEE4sizeEv(ptr noundef nonnull align 8 dereferenceable(24) %12) #5
  %14 = getelementptr inbounds nuw float, ptr %11, i64 %13
  call void @_ZN3gmx12ArrayRefIterIfEC2EPf(ptr noundef nonnull align 8 dereferenceable(8) %9, ptr noundef %14) #5
  ret void
}

; Function Attrs: mustprogress nounwind uwtable
define linkonce_odr noundef ptr @_ZNK3gmx8ArrayRefIfE4dataEv(ptr noundef nonnull align 8 dereferenceable(16) %0) #3 comdat align 2 {
  %2 = alloca ptr, align 8
  store ptr %0, ptr %2, align 8, !tbaa !292
  %3 = load ptr, ptr %2, align 8
  %4 = getelementptr inbounds nuw %"class.gmx::ArrayRef.101", ptr %3, i32 0, i32 0
  %5 = call noundef ptr @_ZNK3gmx12ArrayRefIterIfE4dataEv(ptr noundef nonnull align 8 dereferenceable(8) %4) #5
  ret ptr %5
}

; Function Attrs: mustprogress nounwind uwtable
define linkonce_odr noundef i64 @_ZNK3gmx8ArrayRefIfE4sizeEv(ptr noundef nonnull align 8 dereferenceable(16) %0) #3 comdat align 2 {
  %2 = alloca ptr, align 8
  %3 = alloca %"struct.gmx::ArrayRefIter.102", align 8
  store ptr %0, ptr %2, align 8, !tbaa !292
  %4 = load ptr, ptr %2, align 8
  %5 = getelementptr inbounds nuw %"class.gmx::ArrayRef.101", ptr %4, i32 0, i32 1
  %6 = getelementptr inbounds nuw %"class.gmx::ArrayRef.101", ptr %4, i32 0, i32 0
  call void @llvm.memcpy.p0.p0.i64(ptr align 8 %3, ptr align 8 %6, i64 8, i1 false)
  %7 = getelementptr inbounds nuw %"struct.gmx::ArrayRefIter.102", ptr %3, i32 0, i32 0
  %8 = load ptr, ptr %7, align 8
  %9 = call noundef i64 @_ZNK3gmx12ArrayRefIterIfEmiES1_(ptr noundef nonnull align 8 dereferenceable(8) %5, ptr %8) #5
  ret i64 %9
}

; Function Attrs: mustprogress uwtable
define linkonce_odr { ptr, ptr } @_ZN3gmx14AwhEnergyBlock4dataEv(ptr noundef nonnull align 8 dereferenceable(32) %0) #4 comdat align 2 {
  %2 = alloca %"class.gmx::ArrayRef.101", align 8
  %3 = alloca ptr, align 8
  store ptr %0, ptr %3, align 8, !tbaa !90
  %4 = load ptr, ptr %3, align 8
  %5 = getelementptr inbounds nuw %"class.gmx::AwhEnergyBlock", ptr %4, i32 0, i32 2
  call void @_ZN3gmx8ArrayRefIfEC2IRSt6vectorIfSaIfEEvEEOT_(ptr noundef nonnull align 8 dereferenceable(16) %2, ptr noundef nonnull align 8 dereferenceable(24) %5)
  %6 = load { ptr, ptr }, ptr %2, align 8
  ret { ptr, ptr } %6
}

; Function Attrs: mustprogress nounwind uwtable
define linkonce_odr noundef nonnull align 8 dereferenceable(32) ptr @_ZNSt6vectorIN3gmx14AwhEnergyBlockESaIS1_EEixEm(ptr noundef nonnull align 8 dereferenceable(24) %0, i64 noundef %1) #3 comdat align 2 {
  %3 = alloca ptr, align 8
  %4 = alloca i64, align 8
  store ptr %0, ptr %3, align 8, !tbaa !134
  store i64 %1, ptr %4, align 8, !tbaa !88
  %5 = load ptr, ptr %3, align 8
  %6 = getelementptr inbounds nuw %"struct.std::_Vector_base.9", ptr %5, i32 0, i32 0
  %7 = getelementptr inbounds nuw %"struct.std::_Vector_base<gmx::AwhEnergyBlock, std::allocator<gmx::AwhEnergyBlock>>::_Vector_impl_data", ptr %6, i32 0, i32 0
  %8 = load ptr, ptr %7, align 8, !tbaa !153
  %9 = load i64, ptr %4, align 8, !tbaa !88
  %10 = getelementptr inbounds nuw %"class.gmx::AwhEnergyBlock", ptr %8, i64 %9
  ret ptr %10
}

; Function Attrs: mustprogress nounwind uwtable
define linkonce_odr noundef i64 @_ZNKSt6vectorIN3gmx14AwhEnergyBlockESaIS1_EE4sizeEv(ptr noundef nonnull align 8 dereferenceable(24) %0) #3 comdat align 2 {
  %2 = alloca ptr, align 8
  store ptr %0, ptr %2, align 8, !tbaa !134
  %3 = load ptr, ptr %2, align 8
  %4 = getelementptr inbounds nuw %"struct.std::_Vector_base.9", ptr %3, i32 0, i32 0
  %5 = getelementptr inbounds nuw %"struct.std::_Vector_base<gmx::AwhEnergyBlock, std::allocator<gmx::AwhEnergyBlock>>::_Vector_impl_data", ptr %4, i32 0, i32 1
  %6 = load ptr, ptr %5, align 8, !tbaa !150
  %7 = getelementptr inbounds nuw %"struct.std::_Vector_base.9", ptr %3, i32 0, i32 0
  %8 = getelementptr inbounds nuw %"struct.std::_Vector_base<gmx::AwhEnergyBlock, std::allocator<gmx::AwhEnergyBlock>>::_Vector_impl_data", ptr %7, i32 0, i32 0
  %9 = load ptr, ptr %8, align 8, !tbaa !153
  %10 = ptrtoint ptr %6 to i64
  %11 = ptrtoint ptr %9 to i64
  %12 = sub i64 %10, %11
  %13 = sdiv exact i64 %12, 32
  ret i64 %13
}

; Function Attrs: mustprogress uwtable
define noundef i32 @_ZN3gmx10BiasWriter22writeToEnergySubblocksERKNS_4BiasEP13t_enxsubblock(ptr noundef nonnull align 8 dereferenceable(72) %0, ptr noundef nonnull align 8 dereferenceable(580) %1, ptr noundef %2) #4 align 2 {
  %4 = alloca ptr, align 8
  %5 = alloca ptr, align 8
  %6 = alloca ptr, align 8
  %7 = alloca i64, align 8
  %8 = alloca %"class.gmx::ArrayRef.101", align 8
  %9 = alloca %"class.gmx::ArrayRef.101", align 8
  store ptr %0, ptr %4, align 8, !tbaa !127
  store ptr %1, ptr %5, align 8, !tbaa !129
  store ptr %2, ptr %6, align 8, !tbaa !358
  %10 = load ptr, ptr %4, align 8
  %11 = load ptr, ptr %5, align 8, !tbaa !129
  call void @_ZN3gmx10BiasWriter17prepareBiasOutputERKNS_4BiasE(ptr noundef nonnull align 8 dereferenceable(72) %10, ptr noundef nonnull align 8 dereferenceable(580) %11)
  call void @llvm.lifetime.start.p0(i64 8, ptr %7) #5
  store i64 0, ptr %7, align 8, !tbaa !88
  br label %12

12:                                               ; preds = %50, %3
  %13 = load i64, ptr %7, align 8, !tbaa !88
  %14 = getelementptr inbounds nuw %"class.gmx::BiasWriter", ptr %10, i32 0, i32 0
  %15 = call noundef i64 @_ZNKSt6vectorIN3gmx14AwhEnergyBlockESaIS1_EE4sizeEv(ptr noundef nonnull align 8 dereferenceable(24) %14) #5
  %16 = icmp ult i64 %13, %15
  br i1 %16, label %18, label %17

17:                                               ; preds = %12
  call void @llvm.lifetime.end.p0(i64 8, ptr %7) #5
  br label %53

18:                                               ; preds = %12
  %19 = load ptr, ptr %6, align 8, !tbaa !358
  %20 = load i64, ptr %7, align 8, !tbaa !88
  %21 = getelementptr inbounds nuw %struct.t_enxsubblock, ptr %19, i64 %20
  %22 = getelementptr inbounds nuw %struct.t_enxsubblock, ptr %21, i32 0, i32 1
  store i32 1, ptr %22, align 4, !tbaa !360
  call void @llvm.lifetime.start.p0(i64 16, ptr %8) #5
  %23 = getelementptr inbounds nuw %"class.gmx::BiasWriter", ptr %10, i32 0, i32 0
  %24 = load i64, ptr %7, align 8, !tbaa !88
  %25 = call noundef nonnull align 8 dereferenceable(32) ptr @_ZNSt6vectorIN3gmx14AwhEnergyBlockESaIS1_EEixEm(ptr noundef nonnull align 8 dereferenceable(24) %23, i64 noundef %24) #5
  %26 = call { ptr, ptr } @_ZN3gmx14AwhEnergyBlock4dataEv(ptr noundef nonnull align 8 dereferenceable(32) %25)
  %27 = getelementptr inbounds nuw { ptr, ptr }, ptr %8, i32 0, i32 0
  %28 = extractvalue { ptr, ptr } %26, 0
  store ptr %28, ptr %27, align 8
  %29 = getelementptr inbounds nuw { ptr, ptr }, ptr %8, i32 0, i32 1
  %30 = extractvalue { ptr, ptr } %26, 1
  store ptr %30, ptr %29, align 8
  %31 = call noundef i64 @_ZNK3gmx8ArrayRefIfE4sizeEv(ptr noundef nonnull align 8 dereferenceable(16) %8)
  %32 = trunc i64 %31 to i32
  %33 = load ptr, ptr %6, align 8, !tbaa !358
  %34 = load i64, ptr %7, align 8, !tbaa !88
  %35 = getelementptr inbounds nuw %struct.t_enxsubblock, ptr %33, i64 %34
  %36 = getelementptr inbounds nuw %struct.t_enxsubblock, ptr %35, i32 0, i32 0
  store i32 %32, ptr %36, align 8, !tbaa !364
  call void @llvm.lifetime.end.p0(i64 16, ptr %8) #5
  call void @llvm.lifetime.start.p0(i64 16, ptr %9) #5
  %37 = getelementptr inbounds nuw %"class.gmx::BiasWriter", ptr %10, i32 0, i32 0
  %38 = load i64, ptr %7, align 8, !tbaa !88
  %39 = call noundef nonnull align 8 dereferenceable(32) ptr @_ZNSt6vectorIN3gmx14AwhEnergyBlockESaIS1_EEixEm(ptr noundef nonnull align 8 dereferenceable(24) %37, i64 noundef %38) #5
  %40 = call { ptr, ptr } @_ZN3gmx14AwhEnergyBlock4dataEv(ptr noundef nonnull align 8 dereferenceable(32) %39)
  %41 = getelementptr inbounds nuw { ptr, ptr }, ptr %9, i32 0, i32 0
  %42 = extractvalue { ptr, ptr } %40, 0
  store ptr %42, ptr %41, align 8
  %43 = getelementptr inbounds nuw { ptr, ptr }, ptr %9, i32 0, i32 1
  %44 = extractvalue { ptr, ptr } %40, 1
  store ptr %44, ptr %43, align 8
  %45 = call noundef ptr @_ZNK3gmx8ArrayRefIfE4dataEv(ptr noundef nonnull align 8 dereferenceable(16) %9)
  %46 = load ptr, ptr %6, align 8, !tbaa !358
  %47 = load i64, ptr %7, align 8, !tbaa !88
  %48 = getelementptr inbounds nuw %struct.t_enxsubblock, ptr %46, i64 %47
  %49 = getelementptr inbounds nuw %struct.t_enxsubblock, ptr %48, i32 0, i32 2
  store ptr %45, ptr %49, align 8, !tbaa !365
  call void @llvm.lifetime.end.p0(i64 16, ptr %9) #5
  br label %50

50:                                               ; preds = %18
  %51 = load i64, ptr %7, align 8, !tbaa !88
  %52 = add i64 %51, 1
  store i64 %52, ptr %7, align 8, !tbaa !88
  br label %12, !llvm.loop !366

53:                                               ; preds = %17
  %54 = getelementptr inbounds nuw %"class.gmx::BiasWriter", ptr %10, i32 0, i32 0
  %55 = call noundef i64 @_ZNKSt6vectorIN3gmx14AwhEnergyBlockESaIS1_EE4sizeEv(ptr noundef nonnull align 8 dereferenceable(24) %54) #5
  %56 = trunc i64 %55 to i32
  ret i32 %56
}