; Function Attrs: mustprogress uwtable
define noundef i32 @_ZN3gmx10BiasWriter22writeToEnergySubblocksERKNS_4BiasEP13t_enxsubblock(ptr noundef nonnull align 8 dereferenceable(72) %0, ptr noundef nonnull align 8 dereferenceable(580) %1, ptr noundef writeonly captures(none) %2) local_unnamed_addr #2 align 2 {
  tail call void @_ZN3gmx10BiasWriter17prepareBiasOutputERKNS_4BiasE(ptr noundef nonnull align 8 dereferenceable(72) %0, ptr noundef nonnull align 8 dereferenceable(580) %1)
  %4 = getelementptr inbounds nuw i8, ptr %0, i64 8
  %5 = load ptr, ptr %4, align 8, !tbaa !77
  %6 = load ptr, ptr %0, align 8, !tbaa !82
  %7 = ptrtoint ptr %5 to i64
  %8 = ptrtoint ptr %6 to i64
  %9 = sub i64 %7, %8
  %10 = ashr exact i64 %9, 5
  %.not = icmp eq ptr %5, %6
  br i1 %.not, label %._crit_edge, label %.lr.ph.preheader

.lr.ph.preheader:                                 ; preds = %3
  %umax = tail call i64 @llvm.umax.i64(i64 %10, i64 1)
  br label %.lr.ph

._crit_edge:                                      ; preds = %.lr.ph, %3
  %11 = trunc i64 %10 to i32
  ret i32 %11

.lr.ph:                                           ; preds = %.lr.ph.preheader, %.lr.ph
  %.015 = phi i64 [ %25, %.lr.ph ], [ 0, %.lr.ph.preheader ]
  %12 = getelementptr inbounds nuw %struct.t_enxsubblock, ptr %2, i64 %.015
  %13 = getelementptr inbounds nuw i8, ptr %12, i64 4
  store i32 1, ptr %13, align 4, !tbaa !115
  %14 = getelementptr inbounds nuw %"class.gmx::AwhEnergyBlock", ptr %6, i64 %.015
  %15 = getelementptr inbounds nuw i8, ptr %14, i64 8
  %16 = load ptr, ptr %15, align 8, !tbaa !36
  %17 = getelementptr inbounds nuw i8, ptr %14, i64 16
  %18 = load ptr, ptr %17, align 8, !tbaa !39
  %19 = ptrtoint ptr %18 to i64
  %20 = ptrtoint ptr %16 to i64
  %21 = sub i64 %19, %20
  %22 = lshr exact i64 %21, 2
  %23 = trunc i64 %22 to i32
  store i32 %23, ptr %12, align 8, !tbaa !123
  %24 = getelementptr inbounds nuw i8, ptr %12, i64 8
  store ptr %16, ptr %24, align 8, !tbaa !124
  %25 = add nuw i64 %.015, 1
  %exitcond.not = icmp eq i64 %25, %umax
  br i1 %exitcond.not, label %._crit_edge, label %.lr.ph, !llvm.loop !125
}